target datalayout = "e-m:e-p270:32:32-p271:32:32-p272:64:64-i64:64-i128:128-f80:128-n8:16:32:64-S128"
target triple = "x86_64-pc-linux-gnu"

%struct._lv_bar_t = type { %struct._lv_obj_t, i32, i32, i32, i32, %struct.lv_area_t, i8, %struct._lv_bar_anim_t, %struct._lv_bar_anim_t, i8 }
%struct._lv_obj_t = type { ptr, ptr, ptr, ptr, ptr, %struct.lv_area_t, i32, i16, i16 }
%struct.lv_area_t = type { i32, i32, i32, i32 }
%struct._lv_bar_anim_t = type { ptr, i32, i32, i32 }

; Function Attrs: nounwind uwtable
define i32 @lv_bar_get_max_value(ptr noundef %0) #0 {
  %2 = alloca ptr, align 8
  %3 = alloca ptr, align 8
  store ptr %0, ptr %2, align 8, !tbaa !3
  br label %4

4:                                                ; preds = %1
  br label %5

5:                                                ; preds = %4
  call void @llvm.lifetime.start.p0(i64 8, ptr %3) #5
  %6 = load ptr, ptr %2, align 8, !tbaa !3
  store ptr %6, ptr %3, align 8, !tbaa !3
  %7 = load ptr, ptr %3, align 8, !tbaa !3
  %8 = getelementptr inbounds nuw %struct._lv_bar_t, ptr %7, i32 0, i32 6
  %9 = load i8, ptr %8, align 8, !tbaa !22, !range !27, !noundef !28
  %10 = trunc i8 %9 to i1
  br i1 %10, label %11, label %15

11:                                               ; preds = %5
  %12 = load ptr, ptr %3, align 8, !tbaa !3
  %13 = getelementptr inbounds nuw %struct._lv_bar_t, ptr %12, i32 0, i32 2
  %14 = load i32, ptr %13, align 4, !tbaa !7
  br label %19

15:                                               ; preds = %5
  %16 = load ptr, ptr %3, align 8, !tbaa !3
  %17 = getelementptr inbounds nuw %struct._lv_bar_t, ptr %16, i32 0, i32 3
  %18 = load i32, ptr %17, align 8, !tbaa !15
  br label %19

19:                                               ; preds = %15, %11
  %20 = phi i32 [ %14, %11 ], [ %18, %15 ]
  call void @llvm.lifetime.end.p0(i64 8, ptr %3) #5
  ret i32 %20
}